target datalayout = "e-m:e-p270:32:32-p271:32:32-p272:64:64-i64:64-i128:128-f80:128-n8:16:32:64-S128"
target triple = "x86_64-pc-linux-gnu"

%"struct.OpenImageIO::v3_1_0::TypeDesc" = type { i8, i8, i8, i8, i32 }

@_ZN11OpenImageIO6v3_1_011TypeUnknownE = linkonce_odr hidden constant %"struct.OpenImageIO::v3_1_0::TypeDesc" { i8 0, i8 1, i8 0, i8 0, i32 0 }, comdat, align 4
@_ZN11OpenImageIO6v3_1_010TypeStringE = linkonce_odr hidden constant %"struct.OpenImageIO::v3_1_0::TypeDesc" { i8 13, i8 1, i8 0, i8 0, i32 0 }, comdat, align 4

; Function Attrs: mustprogress nounwind uwtable
define linkonce_odr void @_ZN11OpenImageIO6v3_1_08TypeDescC2ENS1_8BASETYPEENS1_9AGGREGATEENS1_12VECSEMANTICSEi(ptr noundef nonnull align 4 dereferenceable(8) %0, i32 noundef %1, i32 noundef %2, i32 noundef %3, i32 noundef %4) unnamed_addr #7 comdat align 2 {
  %6 = alloca ptr, align 8
  %7 = alloca i32, align 4
  %8 = alloca i32, align 4
  %9 = alloca i32, align 4
  %10 = alloca i32, align 4
  store ptr %0, ptr %6, align 8, !tbaa !76
  store i32 %1, ptr %7, align 4, !tbaa !78
  store i32 %2, ptr %8, align 4, !tbaa !80
  store i32 %3, ptr %9, align 4, !tbaa !82
  store i32 %4, ptr %10, align 4, !tbaa !32
  %11 = load ptr, ptr %6, align 8
  %12 = getelementptr inbounds nuw %"struct.OpenImageIO::v3_1_0::TypeDesc", ptr %11, i32 0, i32 0
  %13 = load i32, ptr %7, align 4, !tbaa !78
  %14 = trunc i32 %13 to i8
  store i8 %14, ptr %12, align 4, !tbaa !84
  %15 = getelementptr inbounds nuw %"struct.OpenImageIO::v3_1_0::TypeDesc", ptr %11, i32 0, i32 1
  %16 = load i32, ptr %8, align 4, !tbaa !80
  %17 = trunc i32 %16 to i8
  store i8 %17, ptr %15, align 1, !tbaa !86
  %18 = getelementptr inbounds nuw %"struct.OpenImageIO::v3_1_0::TypeDesc", ptr %11, i32 0, i32 2
  %19 = load i32, ptr %9, align 4, !tbaa !82
  %20 = trunc i32 %19 to i8
  store i8 %20, ptr %18, align 2, !tbaa !87
  %21 = getelementptr inbounds nuw %"struct.OpenImageIO::v3_1_0::TypeDesc", ptr %11, i32 0, i32 3
  store i8 0, ptr %21, align 1, !tbaa !88
  %22 = getelementptr inbounds nuw %"struct.OpenImageIO::v3_1_0::TypeDesc", ptr %11, i32 0, i32 4
  %23 = load i32, ptr %10, align 4, !tbaa !32
  store i32 %23, ptr %22, align 4, !tbaa !89
  ret void
}

; Function Attrs: mustprogress nounwind uwtable
define linkonce_odr void @_ZN11OpenImageIO6v3_1_08TypeDescC2ENS1_8BASETYPEEi(ptr noundef nonnull align 4 dereferenceable(8) %0, i32 noundef %1, i32 noundef %2) unnamed_addr #7 comdat align 2 {
  %4 = alloca ptr, align 8
  %5 = alloca i32, align 4
  %6 = alloca i32, align 4
  store ptr %0, ptr %4, align 8, !tbaa !76
  store i32 %1, ptr %5, align 4, !tbaa !78
  store i32 %2, ptr %6, align 4, !tbaa !32
  %7 = load ptr, ptr %4, align 8
  %8 = load i32, ptr %5, align 4, !tbaa !78
  %9 = load i32, ptr %6, align 4, !tbaa !32
  call void @_ZN11OpenImageIO6v3_1_08TypeDescC2ENS1_8BASETYPEENS1_9AGGREGATEENS1_12VECSEMANTICSEi(ptr noundef nonnull align 4 dereferenceable(8) %7, i32 noundef %8, i32 noundef 1, i32 noundef 0, i32 noundef %9) #3
  ret void
}

; Function Attrs: mustprogress nounwind uwtable
define i64 @_ZN11OpenImageIO6v3_1_025tiff_datatype_to_typedescE12TIFFDataTypem(i32 noundef %0, i64 noundef %1) #7 {
  %3 = alloca %"struct.OpenImageIO::v3_1_0::TypeDesc", align 4
  %4 = alloca i32, align 4
  %5 = alloca i64, align 8
  store i32 %0, ptr %4, align 4, !tbaa !66
  store i64 %1, ptr %5, align 8, !tbaa !13
  %6 = load i64, ptr %5, align 8, !tbaa !13
  %7 = icmp eq i64 %6, 1
  br i1 %7, label %8, label %9

8:                                                ; preds = %2
  store i64 0, ptr %5, align 8, !tbaa !13
  br label %9

9:                                                ; preds = %8, %2
  %10 = load i32, ptr %4, align 4, !tbaa !66
  switch i32 %10, label %54 [
    i32 0, label %11
    i32 1, label %12
    i32 2, label %15
    i32 3, label %16
    i32 4, label %19
    i32 5, label %22
    i32 6, label %25
    i32 7, label %28
    i32 8, label %31
    i32 9, label %34
    i32 10, label %37
    i32 11, label %40
    i32 12, label %43
    i32 13, label %46
    i32 16, label %47
    i32 17, label %50
    i32 18, label %53
  ]

11:                                               ; preds = %9
  call void @llvm.memcpy.p0.p0.i64(ptr align 4 %3, ptr align 4 @_ZN11OpenImageIO6v3_1_011TypeUnknownE, i64 8, i1 false), !tbaa.struct !74
  br label %55

12:                                               ; preds = %9
  %13 = load i64, ptr %5, align 8, !tbaa !13
  %14 = trunc i64 %13 to i32
  call void @_ZN11OpenImageIO6v3_1_08TypeDescC2ENS1_8BASETYPEEi(ptr noundef nonnull align 4 dereferenceable(8) %3, i32 noundef 2, i32 noundef %14) #3
  br label %55

15:                                               ; preds = %9
  call void @llvm.memcpy.p0.p0.i64(ptr align 4 %3, ptr align 4 @_ZN11OpenImageIO6v3_1_010TypeStringE, i64 8, i1 false), !tbaa.struct !74
  br label %55

16:                                               ; preds = %9
  %17 = load i64, ptr %5, align 8, !tbaa !13
  %18 = trunc i64 %17 to i32
  call void @_ZN11OpenImageIO6v3_1_08TypeDescC2ENS1_8BASETYPEEi(ptr noundef nonnull align 4 dereferenceable(8) %3, i32 noundef 4, i32 noundef %18) #3
  br label %55

19:                                               ; preds = %9
  %20 = load i64, ptr %5, align 8, !tbaa !13
  %21 = trunc i64 %20 to i32
  call void @_ZN11OpenImageIO6v3_1_08TypeDescC2ENS1_8BASETYPEEi(ptr noundef nonnull align 4 dereferenceable(8) %3, i32 noundef 6, i32 noundef %21) #3
  br label %55

22:                                               ; preds = %9
  %23 = load i64, ptr %5, align 8, !tbaa !13
  %24 = trunc i64 %23 to i32
  call void @_ZN11OpenImageIO6v3_1_08TypeDescC2ENS1_8BASETYPEENS1_9AGGREGATEENS1_12VECSEMANTICSEi(ptr noundef nonnull align 4 dereferenceable(8) %3, i32 noundef 7, i32 noundef 2, i32 noundef 7, i32 noundef %24) #3
  br label %55

25:                                               ; preds = %9
  %26 = load i64, ptr %5, align 8, !tbaa !13
  %27 = trunc i64 %26 to i32
  call void @_ZN11OpenImageIO6v3_1_08TypeDescC2ENS1_8BASETYPEEi(ptr noundef nonnull align 4 dereferenceable(8) %3, i32 noundef 3, i32 noundef %27) #3
  br label %55

28:                                               ; preds = %9
  %29 = load i64, ptr %5, align 8, !tbaa !13
  %30 = trunc i64 %29 to i32
  call void @_ZN11OpenImageIO6v3_1_08TypeDescC2ENS1_8BASETYPEEi(ptr noundef nonnull align 4 dereferenceable(8) %3, i32 noundef 2, i32 noundef %30) #3
  br label %55

31:                                               ; preds = %9
  %32 = load i64, ptr %5, align 8, !tbaa !13
  %33 = trunc i64 %32 to i32
  call void @_ZN11OpenImageIO6v3_1_08TypeDescC2ENS1_8BASETYPEEi(ptr noundef nonnull align 4 dereferenceable(8) %3, i32 noundef 5, i32 noundef %33) #3
  br label %55

34:                                               ; preds = %9
  %35 = load i64, ptr %5, align 8, !tbaa !13
  %36 = trunc i64 %35 to i32
  call void @_ZN11OpenImageIO6v3_1_08TypeDescC2ENS1_8BASETYPEEi(ptr noundef nonnull align 4 dereferenceable(8) %3, i32 noundef 7, i32 noundef %36) #3
  br label %55

37:                                               ; preds = %9
  %38 = load i64, ptr %5, align 8, !tbaa !13
  %39 = trunc i64 %38 to i32
  call void @_ZN11OpenImageIO6v3_1_08TypeDescC2ENS1_8BASETYPEENS1_9AGGREGATEENS1_12VECSEMANTICSEi(ptr noundef nonnull align 4 dereferenceable(8) %3, i32 noundef 7, i32 noundef 2, i32 noundef 7, i32 noundef %39) #3
  br label %55

40:                                               ; preds = %9
  %41 = load i64, ptr %5, align 8, !tbaa !13
  %42 = trunc i64 %41 to i32
  call void @_ZN11OpenImageIO6v3_1_08TypeDescC2ENS1_8BASETYPEEi(ptr noundef nonnull align 4 dereferenceable(8) %3, i32 noundef 11, i32 noundef %42) #3
  br label %55

43:                                               ; preds = %9
  %44 = load i64, ptr %5, align 8, !tbaa !13
  %45 = trunc i64 %44 to i32
  call void @_ZN11OpenImageIO6v3_1_08TypeDescC2ENS1_8BASETYPEEi(ptr noundef nonnull align 4 dereferenceable(8) %3, i32 noundef 12, i32 noundef %45) #3
  br label %55

46:                                               ; preds = %9
  call void @llvm.memcpy.p0.p0.i64(ptr align 4 %3, ptr align 4 @_ZN11OpenImageIO6v3_1_011TypeUnknownE, i64 8, i1 false), !tbaa.struct !74
  br label %55

47:                                               ; preds = %9
  %48 = load i64, ptr %5, align 8, !tbaa !13
  %49 = trunc i64 %48 to i32
  call void @_ZN11OpenImageIO6v3_1_08TypeDescC2ENS1_8BASETYPEEi(ptr noundef nonnull align 4 dereferenceable(8) %3, i32 noundef 8, i32 noundef %49) #3
  br label %55

50:                                               ; preds = %9
  %51 = load i64, ptr %5, align 8, !tbaa !13
  %52 = trunc i64 %51 to i32
  call void @_ZN11OpenImageIO6v3_1_08TypeDescC2ENS1_8BASETYPEEi(ptr noundef nonnull align 4 dereferenceable(8) %3, i32 noundef 9, i32 noundef %52) #3
  br label %55

53:                                               ; preds = %9
  call void @llvm.memcpy.p0.p0.i64(ptr align 4 %3, ptr align 4 @_ZN11OpenImageIO6v3_1_011TypeUnknownE, i64 8, i1 false), !tbaa.struct !74
  br label %55

54:                                               ; preds = %9
  call void @llvm.memcpy.p0.p0.i64(ptr align 4 %3, ptr align 4 @_ZN11OpenImageIO6v3_1_011TypeUnknownE, i64 8, i1 false), !tbaa.struct !74
  br label %55

55:                                               ; preds = %54, %53, %50, %47, %46, %43, %40, %37, %34, %31, %28, %25, %22, %19, %16, %15, %12, %11
  %56 = load i64, ptr %3, align 4
  ret i64 %56
}