; Function Attrs: mustprogress nofree norecurse nosync nounwind willreturn memory(none) uwtable
define range(i64 256, -4294443008) i64 @_ZN11OpenImageIO6v3_1_025tiff_datatype_to_typedescE12TIFFDataTypem(i32 noundef %0, i64 noundef %1) local_unnamed_addr #11 {
  %3 = icmp eq i64 %1, 1
  %spec.store.select = select i1 %3, i64 0, i64 %1
  switch i32 %0, label %16 [
    i32 17, label %15
    i32 1, label %4
    i32 2, label %5
    i32 3, label %6
    i32 4, label %7
    i32 5, label %8
    i32 6, label %9
    i32 7, label %4
    i32 8, label %10
    i32 9, label %11
    i32 10, label %8
    i32 11, label %12
    i32 12, label %13
    i32 16, label %14
  ]

4:                                                ; preds = %2, %2
  br label %16

5:                                                ; preds = %2
  br label %16

6:                                                ; preds = %2
  br label %16

7:                                                ; preds = %2
  br label %16

8:                                                ; preds = %2, %2
  br label %16

9:                                                ; preds = %2
  br label %16

10:                                               ; preds = %2
  br label %16

11:                                               ; preds = %2
  br label %16

12:                                               ; preds = %2
  br label %16

13:                                               ; preds = %2
  br label %16

14:                                               ; preds = %2
  br label %16

15:                                               ; preds = %2
  br label %16

16:                                               ; preds = %2, %15, %14, %13, %12, %11, %10, %9, %8, %7, %6, %5, %4
  %.sroa.58.0 = phi i64 [ %spec.store.select, %15 ], [ %spec.store.select, %14 ], [ %spec.store.select, %13 ], [ %spec.store.select, %12 ], [ %spec.store.select, %11 ], [ %spec.store.select, %10 ], [ %spec.store.select, %9 ], [ %spec.store.select, %8 ], [ %spec.store.select, %7 ], [ %spec.store.select, %6 ], [ 0, %5 ], [ %spec.store.select, %4 ], [ 0, %2 ]
  %.sroa.32.0 = phi i64 [ 0, %15 ], [ 0, %14 ], [ 0, %13 ], [ 0, %12 ], [ 0, %11 ], [ 0, %10 ], [ 0, %9 ], [ 458752, %8 ], [ 0, %7 ], [ 0, %6 ], [ 0, %5 ], [ 0, %4 ], [ 0, %2 ]
  %.sroa.19.0 = phi i64 [ 256, %15 ], [ 256, %14 ], [ 256, %13 ], [ 256, %12 ], [ 256, %11 ], [ 256, %10 ], [ 256, %9 ], [ 512, %8 ], [ 256, %7 ], [ 256, %6 ], [ 256, %5 ], [ 256, %4 ], [ 256, %2 ]
  %.sroa.0.0 = phi i64 [ 9, %15 ], [ 8, %14 ], [ 12, %13 ], [ 11, %12 ], [ 7, %11 ], [ 5, %10 ], [ 3, %9 ], [ 7, %8 ], [ 6, %7 ], [ 4, %6 ], [ 13, %5 ], [ 2, %4 ], [ 0, %2 ]
  %.sroa.58.0.insert.ext = shl i64 %.sroa.58.0, 32
  %.sroa.32.0.insert.insert = or disjoint i64 %.sroa.58.0.insert.ext, %.sroa.32.0
  %.sroa.19.0.insert.insert = or disjoint i64 %.sroa.32.0.insert.insert, %.sroa.19.0
  %.sroa.0.0.insert.insert = or disjoint i64 %.sroa.19.0.insert.insert, %.sroa.0.0
  ret i64 %.sroa.0.0.insert.insert
}